target datalayout = "e-m:e-p270:32:32-p271:32:32-p272:64:64-i64:64-i128:128-f80:128-n8:16:32:64-S128"
target triple = "x86_64-pc-linux-gnu"

%"struct.Luau::NotNull" = type { ptr }
%"struct.Luau::Constraint" = type { %"struct.Luau::NotNull", %"struct.Luau::Location", %"class.Luau::Variant", %"class.std::vector" }
%"struct.Luau::Location" = type { %"struct.Luau::Position", %"struct.Luau::Position" }
%"struct.Luau::Position" = type { i32, i32 }
%"class.Luau::Variant" = type { i32, [4 x i8], [96 x i8] }
%"class.std::vector" = type { %"struct.std::_Vector_base" }
%"struct.std::_Vector_base" = type { %"struct.std::_Vector_base<Luau::NotNull<Luau::Constraint>, std::allocator<Luau::NotNull<Luau::Constraint>>>::_Vector_impl" }
%"struct.std::_Vector_base<Luau::NotNull<Luau::Constraint>, std::allocator<Luau::NotNull<Luau::Constraint>>>::_Vector_impl" = type { %"struct.std::_Vector_base<Luau::NotNull<Luau::Constraint>, std::allocator<Luau::NotNull<Luau::Constraint>>>::_Vector_impl_data" }
%"struct.std::_Vector_base<Luau::NotNull<Luau::Constraint>, std::allocator<Luau::NotNull<Luau::Constraint>>>::_Vector_impl_data" = type { ptr, ptr, ptr }

; Function Attrs: mustprogress nounwind uwtable
define linkonce_odr dso_local void @_ZNSt15__new_allocatorIN4Luau7NotNullINS0_10ConstraintEEEEC2Ev(ptr noundef nonnull align 1 dereferenceable(1) %0) unnamed_addr #4 comdat align 2 {
  %2 = alloca ptr, align 8
  store ptr %0, ptr %2, align 8, !tbaa !272
  ret void
}

; Function Attrs: mustprogress nounwind uwtable
define linkonce_odr dso_local void @_ZNSt12_Vector_baseIN4Luau7NotNullINS0_10ConstraintEEESaIS3_EE17_Vector_impl_dataC2Ev(ptr noundef nonnull align 8 dereferenceable(24) %0) unnamed_addr #4 comdat align 2 {
  %2 = alloca ptr, align 8
  store ptr %0, ptr %2, align 8, !tbaa !265
  %3 = load ptr, ptr %2, align 8
  %4 = getelementptr inbounds nuw %"struct.std::_Vector_base<Luau::NotNull<Luau::Constraint>, std::allocator<Luau::NotNull<Luau::Constraint>>>::_Vector_impl_data", ptr %3, i32 0, i32 0
  store ptr null, ptr %4, align 8, !tbaa !267
  %5 = getelementptr inbounds nuw %"struct.std::_Vector_base<Luau::NotNull<Luau::Constraint>, std::allocator<Luau::NotNull<Luau::Constraint>>>::_Vector_impl_data", ptr %3, i32 0, i32 1
  store ptr null, ptr %5, align 8, !tbaa !270
  %6 = getelementptr inbounds nuw %"struct.std::_Vector_base<Luau::NotNull<Luau::Constraint>, std::allocator<Luau::NotNull<Luau::Constraint>>>::_Vector_impl_data", ptr %3, i32 0, i32 2
  store ptr null, ptr %6, align 8, !tbaa !271
  ret void
}

; Function Attrs: mustprogress nounwind uwtable
define linkonce_odr dso_local void @_ZNSaIN4Luau7NotNullINS_10ConstraintEEEEC2Ev(ptr noundef nonnull align 1 dereferenceable(1) %0) unnamed_addr #4 comdat align 2 {
  %2 = alloca ptr, align 8
  store ptr %0, ptr %2, align 8, !tbaa !263
  %3 = load ptr, ptr %2, align 8
  call void @_ZNSt15__new_allocatorIN4Luau7NotNullINS0_10ConstraintEEEEC2Ev(ptr noundef nonnull align 1 dereferenceable(1) %3) #15
  ret void
}

; Function Attrs: mustprogress nounwind uwtable
define linkonce_odr dso_local void @_ZNSt12_Vector_baseIN4Luau7NotNullINS0_10ConstraintEEESaIS3_EE12_Vector_implC2Ev(ptr noundef nonnull align 8 dereferenceable(24) %0) unnamed_addr #4 comdat align 2 {
  %2 = alloca ptr, align 8
  store ptr %0, ptr %2, align 8, !tbaa !261
  %3 = load ptr, ptr %2, align 8
  call void @_ZNSaIN4Luau7NotNullINS_10ConstraintEEEEC2Ev(ptr noundef nonnull align 1 dereferenceable(1) %3) #15
  call void @_ZNSt12_Vector_baseIN4Luau7NotNullINS0_10ConstraintEEESaIS3_EE17_Vector_impl_dataC2Ev(ptr noundef nonnull align 8 dereferenceable(24) %3) #15
  ret void
}

; Function Attrs: mustprogress nounwind uwtable
define linkonce_odr dso_local void @_ZNSt12_Vector_baseIN4Luau7NotNullINS0_10ConstraintEEESaIS3_EEC2Ev(ptr noundef nonnull align 8 dereferenceable(24) %0) unnamed_addr #4 comdat align 2 {
  %2 = alloca ptr, align 8
  store ptr %0, ptr %2, align 8, !tbaa !259
  %3 = load ptr, ptr %2, align 8
  %4 = getelementptr inbounds nuw %"struct.std::_Vector_base", ptr %3, i32 0, i32 0
  call void @_ZNSt12_Vector_baseIN4Luau7NotNullINS0_10ConstraintEEESaIS3_EE12_Vector_implC2Ev(ptr noundef nonnull align 8 dereferenceable(24) %4) #15
  ret void
}

; Function Attrs: mustprogress nounwind uwtable
define linkonce_odr dso_local void @_ZNSt6vectorIN4Luau7NotNullINS0_10ConstraintEEESaIS3_EEC2Ev(ptr noundef nonnull align 8 dereferenceable(24) %0) unnamed_addr #4 comdat align 2 {
  %2 = alloca ptr, align 8
  store ptr %0, ptr %2, align 8, !tbaa !22
  %3 = load ptr, ptr %2, align 8
  call void @_ZNSt12_Vector_baseIN4Luau7NotNullINS0_10ConstraintEEESaIS3_EEC2Ev(ptr noundef nonnull align 8 dereferenceable(24) %3) #15
  ret void
}

; Function Attrs: mustprogress uwtable
define linkonce_odr dso_local void @_ZN4Luau7VariantIJNS_17SubtypeConstraintENS_21PackSubtypeConstraintENS_24GeneralizationConstraintENS_18IterableConstraintENS_14NameConstraintENS_28TypeAliasExpansionConstraintENS_22FunctionCallConstraintENS_23FunctionCheckConstraintENS_23PrimitiveTypeConstraintENS_17HasPropConstraintENS_20HasIndexerConstraintENS_20AssignPropConstraintENS_21AssignIndexConstraintENS_16UnpackConstraintENS_16ReduceConstraintENS_20ReducePackConstraintENS_18EqualityConstraintENS_20TableCheckConstraintEEEC2EOSJ_(ptr noundef nonnull align 8 dereferenceable(104) %0, ptr noundef nonnull align 8 dereferenceable(104) %1) unnamed_addr #2 comdat align 2 {
  %3 = alloca ptr, align 8
  %4 = alloca ptr, align 8
  store ptr %0, ptr %3, align 8, !tbaa !13
  store ptr %1, ptr %4, align 8, !tbaa !13
  %5 = load ptr, ptr %3, align 8
  %6 = load ptr, ptr %4, align 8, !tbaa !13
  %7 = getelementptr inbounds nuw %"class.Luau::Variant", ptr %6, i32 0, i32 0
  %8 = load i32, ptr %7, align 8, !tbaa !19
  %9 = getelementptr inbounds nuw %"class.Luau::Variant", ptr %5, i32 0, i32 0
  store i32 %8, ptr %9, align 8, !tbaa !19
  %10 = getelementptr inbounds nuw %"class.Luau::Variant", ptr %5, i32 0, i32 0
  %11 = load i32, ptr %10, align 8, !tbaa !19
  %12 = sext i32 %11 to i64
  %13 = getelementptr inbounds [18 x ptr], ptr @_ZN4Luau7VariantIJNS_17SubtypeConstraintENS_21PackSubtypeConstraintENS_24GeneralizationConstraintENS_18IterableConstraintENS_14NameConstraintENS_28TypeAliasExpansionConstraintENS_22FunctionCallConstraintENS_23FunctionCheckConstraintENS_23PrimitiveTypeConstraintENS_17HasPropConstraintENS_20HasIndexerConstraintENS_20AssignPropConstraintENS_21AssignIndexConstraintENS_16UnpackConstraintENS_16ReduceConstraintENS_20ReducePackConstraintENS_18EqualityConstraintENS_20TableCheckConstraintEEE9tableMoveE, i64 0, i64 %12
  %14 = load ptr, ptr %13, align 8, !tbaa !21
  %15 = getelementptr inbounds nuw %"class.Luau::Variant", ptr %5, i32 0, i32 2
  %16 = load ptr, ptr %4, align 8, !tbaa !13
  %17 = getelementptr inbounds nuw %"class.Luau::Variant", ptr %16, i32 0, i32 2
  call void %14(ptr noundef %15, ptr noundef %17)
  ret void
}

; Function Attrs: mustprogress uwtable
define dso_local void @_ZN4Luau10ConstraintC2ENS_7NotNullINS_5ScopeEEERKNS_8LocationEONS_7VariantIJNS_17SubtypeConstraintENS_21PackSubtypeConstraintENS_24GeneralizationConstraintENS_18IterableConstraintENS_14NameConstraintENS_28TypeAliasExpansionConstraintENS_22FunctionCallConstraintENS_23FunctionCheckConstraintENS_23PrimitiveTypeConstraintENS_17HasPropConstraintENS_20HasIndexerConstraintENS_20AssignPropConstraintENS_21AssignIndexConstraintENS_16UnpackConstraintENS_16ReduceConstraintENS_20ReducePackConstraintENS_18EqualityConstraintENS_20TableCheckConstraintEEEE(ptr noundef nonnull align 8 dereferenceable(152) %0, ptr %1, ptr noundef nonnull align 4 dereferenceable(16) %2, ptr noundef nonnull align 8 dereferenceable(104) %3) unnamed_addr #2 align 2 {
  %5 = alloca %"struct.Luau::NotNull", align 8
  %6 = alloca ptr, align 8
  %7 = alloca ptr, align 8
  %8 = alloca ptr, align 8
  %9 = getelementptr inbounds nuw %"struct.Luau::NotNull", ptr %5, i32 0, i32 0
  store ptr %1, ptr %9, align 8
  store ptr %0, ptr %6, align 8, !tbaa !8
  store ptr %2, ptr %7, align 8, !tbaa !11
  store ptr %3, ptr %8, align 8, !tbaa !13
  %10 = load ptr, ptr %6, align 8
  %11 = getelementptr inbounds nuw %"struct.Luau::Constraint", ptr %10, i32 0, i32 0
  call void @llvm.memcpy.p0.p0.i64(ptr align 8 %11, ptr align 8 %5, i64 8, i1 false), !tbaa.struct !15
  %12 = getelementptr inbounds nuw %"struct.Luau::Constraint", ptr %10, i32 0, i32 1
  %13 = load ptr, ptr %7, align 8, !tbaa !11
  call void @llvm.memcpy.p0.p0.i64(ptr align 8 %12, ptr align 4 %13, i64 16, i1 false), !tbaa.struct !18
  %14 = getelementptr inbounds nuw %"struct.Luau::Constraint", ptr %10, i32 0, i32 2
  %15 = load ptr, ptr %8, align 8, !tbaa !13
  call void @_ZN4Luau7VariantIJNS_17SubtypeConstraintENS_21PackSubtypeConstraintENS_24GeneralizationConstraintENS_18IterableConstraintENS_14NameConstraintENS_28TypeAliasExpansionConstraintENS_22FunctionCallConstraintENS_23FunctionCheckConstraintENS_23PrimitiveTypeConstraintENS_17HasPropConstraintENS_20HasIndexerConstraintENS_20AssignPropConstraintENS_21AssignIndexConstraintENS_16UnpackConstraintENS_16ReduceConstraintENS_20ReducePackConstraintENS_18EqualityConstraintENS_20TableCheckConstraintEEEC2EOSJ_(ptr noundef nonnull align 8 dereferenceable(104) %14, ptr noundef nonnull align 8 dereferenceable(104) %15)
  %16 = getelementptr inbounds nuw %"struct.Luau::Constraint", ptr %10, i32 0, i32 3
  call void @_ZNSt6vectorIN4Luau7NotNullINS0_10ConstraintEEESaIS3_EEC2Ev(ptr noundef nonnull align 8 dereferenceable(24) %16) #15
  ret void
}