; Function Attrs: mustprogress uwtable
define dso_local void @_ZN4Luau10ConstraintC2ENS_7NotNullINS_5ScopeEEERKNS_8LocationEONS_7VariantIJNS_17SubtypeConstraintENS_21PackSubtypeConstraintENS_24GeneralizationConstraintENS_18IterableConstraintENS_14NameConstraintENS_28TypeAliasExpansionConstraintENS_22FunctionCallConstraintENS_23FunctionCheckConstraintENS_23PrimitiveTypeConstraintENS_17HasPropConstraintENS_20HasIndexerConstraintENS_20AssignPropConstraintENS_21AssignIndexConstraintENS_16UnpackConstraintENS_16ReduceConstraintENS_20ReducePackConstraintENS_18EqualityConstraintENS_20TableCheckConstraintEEEE(ptr noundef nonnull align 8 dereferenceable(152) initializes((0, 28)) %0, ptr %1, ptr noundef nonnull readonly align 4 captures(none) dereferenceable(16) %2, ptr noundef nonnull align 8 dereferenceable(104) %3) unnamed_addr #2 align 2 {
  store ptr %1, ptr %0, align 8, !tbaa !8
  %5 = getelementptr inbounds nuw i8, ptr %0, i64 8
  tail call void @llvm.memcpy.p0.p0.i64(ptr noundef nonnull align 8 dereferenceable(16) %5, ptr noundef nonnull align 4 dereferenceable(16) %2, i64 16, i1 false), !tbaa.struct !11
  %6 = getelementptr inbounds nuw i8, ptr %0, i64 24
  %7 = load i32, ptr %3, align 8, !tbaa !12
  store i32 %7, ptr %6, align 8, !tbaa !12
  %8 = sext i32 %7 to i64
  %9 = getelementptr inbounds [18 x ptr], ptr @_ZN4Luau7VariantIJNS_17SubtypeConstraintENS_21PackSubtypeConstraintENS_24GeneralizationConstraintENS_18IterableConstraintENS_14NameConstraintENS_28TypeAliasExpansionConstraintENS_22FunctionCallConstraintENS_23FunctionCheckConstraintENS_23PrimitiveTypeConstraintENS_17HasPropConstraintENS_20HasIndexerConstraintENS_20AssignPropConstraintENS_21AssignIndexConstraintENS_16UnpackConstraintENS_16ReduceConstraintENS_20ReducePackConstraintENS_18EqualityConstraintENS_20TableCheckConstraintEEE9tableMoveE, i64 0, i64 %8
  %10 = load ptr, ptr %9, align 8, !tbaa !14
  %11 = getelementptr inbounds nuw i8, ptr %0, i64 32
  %12 = getelementptr inbounds nuw i8, ptr %3, i64 8
  tail call void %10(ptr noundef nonnull %11, ptr noundef nonnull %12)
  %13 = getelementptr inbounds nuw i8, ptr %0, i64 128
  tail call void @llvm.memset.p0.i64(ptr noundef nonnull align 8 dereferenceable(24) %13, i8 0, i64 24, i1 false)
  ret void
}